; ModuleID = 'source-C-CXX/59/1805.c'
source_filename = "source-C-CXX/59/1805.c"
target datalayout = "e-m:e-p270:32:32-p271:32:32-p272:64:64-i64:64-f80:128-n8:16:32:64-S128"
target triple = "x86_64-pc-linux-gnu"

@.str = private unnamed_addr constant [3 x i8] c"%d\00", align 1
@.str.1 = private unnamed_addr constant [7 x i8] c"%d %d\0A\00", align 1
@.str.2 = private unnamed_addr constant [6 x i8] c"empty\00", align 1

; Function Attrs: nofree nounwind sspstrong uwtable
define dso_local i32 @main() local_unnamed_addr #0 {
  %1 = alloca i32, align 4
  %2 = bitcast i32* %1 to i8*
  call void @llvm.lifetime.start.p0i8(i64 4, i8* nonnull %2) #4
  %3 = call i32 (i8*, ...) @__isoc99_scanf(i8* getelementptr inbounds ([3 x i8], [3 x i8]* @.str, i64 0, i64 0), i32* nonnull %1)
  %4 = load i32, i32* %1, align 4, !tbaa !5
  %5 = icmp slt i32 %4, 2
  br i1 %5, label %47, label %6

6:                                                ; preds = %0, %40
  %7 = phi i32 [ %41, %40 ], [ 1, %0 ]
  %8 = phi i32 [ %42, %40 ], [ 2, %0 ]
  %9 = sitofp i32 %8 to double
  %10 = call double @sqrt(double %9) #4
  %11 = fptosi double %10 to i32
  %12 = icmp slt i32 %11, 2
  br i1 %12, label %20, label %16

13:                                               ; preds = %16
  %14 = add nuw i32 %17, 1
  %15 = icmp eq i32 %17, %11
  br i1 %15, label %20, label %16, !llvm.loop !9

16:                                               ; preds = %6, %13
  %17 = phi i32 [ %14, %13 ], [ 2, %6 ]
  %18 = urem i32 %8, %17
  %19 = icmp eq i32 %18, 0
  br i1 %19, label %22, label %13

20:                                               ; preds = %13, %6
  %21 = add nuw nsw i32 %8, 2
  br label %22

22:                                               ; preds = %16, %20
  %23 = phi i32 [ %21, %20 ], [ 4, %16 ]
  %24 = sitofp i32 %23 to double
  %25 = call double @sqrt(double %24) #4
  %26 = fptosi double %25 to i32
  %27 = icmp slt i32 %26, 2
  br i1 %27, label %35, label %31

28:                                               ; preds = %31
  %29 = add nuw i32 %32, 1
  %30 = icmp eq i32 %32, %26
  br i1 %30, label %35, label %31, !llvm.loop !11

31:                                               ; preds = %22, %28
  %32 = phi i32 [ %29, %28 ], [ 2, %22 ]
  %33 = srem i32 %23, %32
  %34 = icmp eq i32 %33, 0
  br i1 %34, label %40, label %28

35:                                               ; preds = %28, %22
  %36 = load i32, i32* %1, align 4, !tbaa !5
  %37 = icmp sgt i32 %23, %36
  br i1 %37, label %40, label %38

38:                                               ; preds = %35
  %39 = call i32 (i8*, ...) @printf(i8* nonnull dereferenceable(1) getelementptr inbounds ([7 x i8], [7 x i8]* @.str.1, i64 0, i64 0), i32 %8, i32 %23)
  br label %40

40:                                               ; preds = %31, %35, %38
  %41 = phi i32 [ 0, %38 ], [ %7, %35 ], [ %7, %31 ]
  %42 = add nuw nsw i32 %8, 1
  %43 = load i32, i32* %1, align 4, !tbaa !5
  %44 = icmp slt i32 %8, %43
  br i1 %44, label %6, label %45, !llvm.loop !12

45:                                               ; preds = %40
  %46 = icmp eq i32 %41, 1
  br i1 %46, label %47, label %49

47:                                               ; preds = %0, %45
  %48 = call i32 (i8*, ...) @printf(i8* nonnull dereferenceable(1) getelementptr inbounds ([6 x i8], [6 x i8]* @.str.2, i64 0, i64 0))
  br label %49

49:                                               ; preds = %47, %45
  call void @llvm.lifetime.end.p0i8(i64 4, i8* nonnull %2) #4
  ret i32 0
}

; Function Attrs: argmemonly mustprogress nofree nosync nounwind willreturn
declare void @llvm.lifetime.start.p0i8(i64 immarg, i8* nocapture) #1

; Function Attrs: nofree nounwind
declare noundef i32 @__isoc99_scanf(i8* nocapture noundef readonly, ...) local_unnamed_addr #2

; Function Attrs: mustprogress nofree nounwind willreturn
declare double @sqrt(double) local_unnamed_addr #3

; Function Attrs: nofree nounwind
declare noundef i32 @printf(i8* nocapture noundef readonly, ...) local_unnamed_addr #2

; Function Attrs: argmemonly mustprogress nofree nosync nounwind willreturn
declare void @llvm.lifetime.end.p0i8(i64 immarg, i8* nocapture) #1


!llvm.module.flags = !{!0, !1, !2, !3}
!llvm.ident = !{!4}

!0 = !{i32 1, !"wchar_size", i32 4}
!1 = !{i32 7, !"PIC Level", i32 2}
!2 = !{i32 7, !"PIE Level", i32 2}
!3 = !{i32 7, !"uwtable", i32 1}
!4 = !{!"clang version 13.0.0"}
!5 = !{!6, !6, i64 0}
!6 = !{!"int", !7, i64 0}
!7 = !{!"omnipotent char", !8, i64 0}
!8 = !{!"Simple C/C++ TBAA"}
!9 = distinct !{!9, !10}
!10 = !{!"llvm.loop.mustprogress"}
!11 = distinct !{!11, !10}
!12 = distinct !{!12, !10}
